target datalayout = "e-m:e-p270:32:32-p271:32:32-p272:64:64-i64:64-i128:128-f80:128-n8:16:32:64-S128"
target triple = "x86_64-pc-linux-gnu"

%"class.cvc5::internal::NodeTemplate" = type { ptr }
%"class.cvc5::internal::expr::NodeValue" = type { i64, i64, ptr, [0 x ptr] }

; Function Attrs: inlinehint mustprogress nounwind uwtable
define linkonce_odr hidden void @_ZNK4cvc58internal12NodeTemplateILb0EE21assertTNodeNotExpiredEv(ptr noundef nonnull align 8 dereferenceable(8) %0) #8 comdat align 2 {
  %2 = alloca ptr, align 8
  store ptr %0, ptr %2, align 8, !tbaa !8
  ret void
}

; Function Attrs: mustprogress nounwind uwtable
define linkonce_odr hidden void @_ZN4cvc58internal12NodeTemplateILb0EED2Ev(ptr noundef nonnull align 8 dereferenceable(8) %0) unnamed_addr #7 comdat align 2 {
  %2 = alloca ptr, align 8
  store ptr %0, ptr %2, align 8, !tbaa !8
  ret void
}

; Function Attrs: mustprogress nounwind uwtable
define linkonce_odr hidden void @_ZN4cvc58internal12NodeTemplateILb0EEC2ERKS2_(ptr noundef nonnull align 8 dereferenceable(8) %0, ptr noundef nonnull align 8 dereferenceable(8) %1) unnamed_addr #7 comdat align 2 {
  %3 = alloca ptr, align 8
  %4 = alloca ptr, align 8
  store ptr %0, ptr %3, align 8, !tbaa !8
  store ptr %1, ptr %4, align 8, !tbaa !8
  %5 = load ptr, ptr %3, align 8
  %6 = load ptr, ptr %4, align 8, !tbaa !8
  %7 = getelementptr inbounds nuw %"class.cvc5::internal::NodeTemplate", ptr %6, i32 0, i32 0
  %8 = load ptr, ptr %7, align 8, !tbaa !15
  %9 = getelementptr inbounds nuw %"class.cvc5::internal::NodeTemplate", ptr %5, i32 0, i32 0
  store ptr %8, ptr %9, align 8, !tbaa !15
  ret void
}

; Function Attrs: inlinehint mustprogress uwtable
define linkonce_odr hidden noundef i32 @_ZNK4cvc58internal12NodeTemplateILb0EE7getKindEv(ptr noundef nonnull align 8 dereferenceable(8) %0) #5 comdat align 2 {
  %2 = alloca ptr, align 8
  store ptr %0, ptr %2, align 8, !tbaa !8
  %3 = load ptr, ptr %2, align 8
  call void @_ZNK4cvc58internal12NodeTemplateILb0EE21assertTNodeNotExpiredEv(ptr noundef nonnull align 8 dereferenceable(8) %3)
  %4 = getelementptr inbounds nuw %"class.cvc5::internal::NodeTemplate", ptr %3, i32 0, i32 0
  %5 = load ptr, ptr %4, align 8, !tbaa !15
  %6 = getelementptr inbounds nuw %"class.cvc5::internal::expr::NodeValue", ptr %5, i32 0, i32 1
  %7 = load i64, ptr %6, align 8
  %8 = and i64 %7, 1023
  %9 = trunc i64 %8 to i32
  ret i32 %9
}

; Function Attrs: mustprogress uwtable
define hidden noundef zeroext i1 @_ZN4cvc58internal4expr11TypeChecker14computeIsConstEPNS0_11NodeManagerENS0_12NodeTemplateILb0EEE(ptr noundef %0, ptr noundef %1) #4 align 2 personality ptr @__gxx_personality_v0 {
  %3 = alloca i1, align 1
  %4 = alloca ptr, align 8
  %5 = alloca ptr, align 8
  %6 = alloca %"class.cvc5::internal::NodeTemplate", align 8
  %7 = alloca ptr, align 8
  %8 = alloca i32, align 4
  %9 = alloca %"class.cvc5::internal::NodeTemplate", align 8
  %10 = alloca %"class.cvc5::internal::NodeTemplate", align 8
  %11 = alloca %"class.cvc5::internal::NodeTemplate", align 8
  %12 = alloca %"class.cvc5::internal::NodeTemplate", align 8
  %13 = alloca %"class.cvc5::internal::NodeTemplate", align 8
  %14 = alloca %"class.cvc5::internal::NodeTemplate", align 8
  store ptr %0, ptr %4, align 8, !tbaa !3
  store ptr %1, ptr %5, align 8, !tbaa !8
  %15 = call noundef i32 @_ZNK4cvc58internal12NodeTemplateILb0EE7getKindEv(ptr noundef nonnull align 8 dereferenceable(8) %1)
  switch i32 %15, label %72 [
    i32 216, label %16
    i32 224, label %24
    i32 254, label %32
    i32 259, label %40
    i32 291, label %48
    i32 299, label %56
    i32 346, label %64
  ]

16:                                               ; preds = %2
  %17 = load ptr, ptr %4, align 8, !tbaa !3
  call void @_ZN4cvc58internal12NodeTemplateILb0EEC2ERKS2_(ptr noundef nonnull align 8 dereferenceable(8) %6, ptr noundef nonnull align 8 dereferenceable(8) %1)
  %18 = invoke noundef zeroext i1 @_ZN4cvc58internal6theory6arrays18ArrayStoreTypeRule14computeIsConstEPNS0_11NodeManagerENS0_12NodeTemplateILb0EEE(ptr noundef %17, ptr noundef %6)
          to label %19 unwind label %20

19:                                               ; preds = %16
  store i1 %18, ptr %3, align 1
  call void @_ZN4cvc58internal12NodeTemplateILb0EED2Ev(ptr noundef nonnull align 8 dereferenceable(8) %6) #3
  br label %74

20:                                               ; preds = %16
  %21 = landingpad { ptr, i32 }
          cleanup
  %22 = extractvalue { ptr, i32 } %21, 0
  store ptr %22, ptr %7, align 8
  %23 = extractvalue { ptr, i32 } %21, 1
  store i32 %23, ptr %8, align 4
  call void @_ZN4cvc58internal12NodeTemplateILb0EED2Ev(ptr noundef nonnull align 8 dereferenceable(8) %6) #3
  br label %76

24:                                               ; preds = %2
  %25 = load ptr, ptr %4, align 8, !tbaa !3
  call void @_ZN4cvc58internal12NodeTemplateILb0EEC2ERKS2_(ptr noundef nonnull align 8 dereferenceable(8) %9, ptr noundef nonnull align 8 dereferenceable(8) %1)
  %26 = invoke noundef zeroext i1 @_ZN4cvc58internal6theory9datatypes27DatatypeConstructorTypeRule14computeIsConstEPNS0_11NodeManagerENS0_12NodeTemplateILb0EEE(ptr noundef %25, ptr noundef %9)
          to label %27 unwind label %28

27:                                               ; preds = %24
  store i1 %26, ptr %3, align 1
  call void @_ZN4cvc58internal12NodeTemplateILb0EED2Ev(ptr noundef nonnull align 8 dereferenceable(8) %9) #3
  br label %74

28:                                               ; preds = %24
  %29 = landingpad { ptr, i32 }
          cleanup
  %30 = extractvalue { ptr, i32 } %29, 0
  store ptr %30, ptr %7, align 8
  %31 = extractvalue { ptr, i32 } %29, 1
  store i32 %31, ptr %8, align 4
  call void @_ZN4cvc58internal12NodeTemplateILb0EED2Ev(ptr noundef nonnull align 8 dereferenceable(8) %9) #3
  br label %76

32:                                               ; preds = %2
  %33 = load ptr, ptr %4, align 8, !tbaa !3
  call void @_ZN4cvc58internal12NodeTemplateILb0EEC2ERKS2_(ptr noundef nonnull align 8 dereferenceable(8) %10, ptr noundef nonnull align 8 dereferenceable(8) %1)
  %34 = invoke noundef zeroext i1 @_ZN4cvc58internal6theory4sets26SetsBinaryOperatorTypeRule14computeIsConstEPNS0_11NodeManagerENS0_12NodeTemplateILb0EEE(ptr noundef %33, ptr noundef %10)
          to label %35 unwind label %36

35:                                               ; preds = %32
  store i1 %34, ptr %3, align 1
  call void @_ZN4cvc58internal12NodeTemplateILb0EED2Ev(ptr noundef nonnull align 8 dereferenceable(8) %10) #3
  br label %74

36:                                               ; preds = %32
  %37 = landingpad { ptr, i32 }
          cleanup
  %38 = extractvalue { ptr, i32 } %37, 0
  store ptr %38, ptr %7, align 8
  %39 = extractvalue { ptr, i32 } %37, 1
  store i32 %39, ptr %8, align 4
  call void @_ZN4cvc58internal12NodeTemplateILb0EED2Ev(ptr noundef nonnull align 8 dereferenceable(8) %10) #3
  br label %76

40:                                               ; preds = %2
  %41 = load ptr, ptr %4, align 8, !tbaa !3
  call void @_ZN4cvc58internal12NodeTemplateILb0EEC2ERKS2_(ptr noundef nonnull align 8 dereferenceable(8) %11, ptr noundef nonnull align 8 dereferenceable(8) %1)
  %42 = invoke noundef zeroext i1 @_ZN4cvc58internal6theory4sets17SingletonTypeRule14computeIsConstEPNS0_11NodeManagerENS0_12NodeTemplateILb0EEE(ptr noundef %41, ptr noundef %11)
          to label %43 unwind label %44

43:                                               ; preds = %40
  store i1 %42, ptr %3, align 1
  call void @_ZN4cvc58internal12NodeTemplateILb0EED2Ev(ptr noundef nonnull align 8 dereferenceable(8) %11) #3
  br label %74

44:                                               ; preds = %40
  %45 = landingpad { ptr, i32 }
          cleanup
  %46 = extractvalue { ptr, i32 } %45, 0
  store ptr %46, ptr %7, align 8
  %47 = extractvalue { ptr, i32 } %45, 1
  store i32 %47, ptr %8, align 4
  call void @_ZN4cvc58internal12NodeTemplateILb0EED2Ev(ptr noundef nonnull align 8 dereferenceable(8) %11) #3
  br label %76

48:                                               ; preds = %2
  %49 = load ptr, ptr %4, align 8, !tbaa !3
  call void @_ZN4cvc58internal12NodeTemplateILb0EEC2ERKS2_(ptr noundef nonnull align 8 dereferenceable(8) %12, ptr noundef nonnull align 8 dereferenceable(8) %1)
  %50 = invoke noundef zeroext i1 @_ZN4cvc58internal6theory4bags22BinaryOperatorTypeRule14computeIsConstEPNS0_11NodeManagerENS0_12NodeTemplateILb0EEE(ptr noundef %49, ptr noundef %12)
          to label %51 unwind label %52

51:                                               ; preds = %48
  store i1 %50, ptr %3, align 1
  call void @_ZN4cvc58internal12NodeTemplateILb0EED2Ev(ptr noundef nonnull align 8 dereferenceable(8) %12) #3
  br label %74

52:                                               ; preds = %48
  %53 = landingpad { ptr, i32 }
          cleanup
  %54 = extractvalue { ptr, i32 } %53, 0
  store ptr %54, ptr %7, align 8
  %55 = extractvalue { ptr, i32 } %53, 1
  store i32 %55, ptr %8, align 4
  call void @_ZN4cvc58internal12NodeTemplateILb0EED2Ev(ptr noundef nonnull align 8 dereferenceable(8) %12) #3
  br label %76

56:                                               ; preds = %2
  %57 = load ptr, ptr %4, align 8, !tbaa !3
  call void @_ZN4cvc58internal12NodeTemplateILb0EEC2ERKS2_(ptr noundef nonnull align 8 dereferenceable(8) %13, ptr noundef nonnull align 8 dereferenceable(8) %1)
  %58 = invoke noundef zeroext i1 @_ZN4cvc58internal6theory4bags15BagMakeTypeRule14computeIsConstEPNS0_11NodeManagerENS0_12NodeTemplateILb0EEE(ptr noundef %57, ptr noundef %13)
          to label %59 unwind label %60

59:                                               ; preds = %56
  store i1 %58, ptr %3, align 1
  call void @_ZN4cvc58internal12NodeTemplateILb0EED2Ev(ptr noundef nonnull align 8 dereferenceable(8) %13) #3
  br label %74

60:                                               ; preds = %56
  %61 = landingpad { ptr, i32 }
          cleanup
  %62 = extractvalue { ptr, i32 } %61, 0
  store ptr %62, ptr %7, align 8
  %63 = extractvalue { ptr, i32 } %61, 1
  store i32 %63, ptr %8, align 4
  call void @_ZN4cvc58internal12NodeTemplateILb0EED2Ev(ptr noundef nonnull align 8 dereferenceable(8) %13) #3
  br label %76

64:                                               ; preds = %2
  %65 = load ptr, ptr %4, align 8, !tbaa !3
  call void @_ZN4cvc58internal12NodeTemplateILb0EEC2ERKS2_(ptr noundef nonnull align 8 dereferenceable(8) %14, ptr noundef nonnull align 8 dereferenceable(8) %1)
  %66 = invoke noundef zeroext i1 @_ZN4cvc58internal6theory7strings22StringToRegExpTypeRule14computeIsConstEPNS0_11NodeManagerENS0_12NodeTemplateILb0EEE(ptr noundef %65, ptr noundef %14)
          to label %67 unwind label %68

67:                                               ; preds = %64
  store i1 %66, ptr %3, align 1
  call void @_ZN4cvc58internal12NodeTemplateILb0EED2Ev(ptr noundef nonnull align 8 dereferenceable(8) %14) #3
  br label %74

68:                                               ; preds = %64
  %69 = landingpad { ptr, i32 }
          cleanup
  %70 = extractvalue { ptr, i32 } %69, 0
  store ptr %70, ptr %7, align 8
  %71 = extractvalue { ptr, i32 } %69, 1
  store i32 %71, ptr %8, align 4
  call void @_ZN4cvc58internal12NodeTemplateILb0EED2Ev(ptr noundef nonnull align 8 dereferenceable(8) %14) #3
  br label %76

72:                                               ; preds = %2
  br label %73

73:                                               ; preds = %72
  store i1 false, ptr %3, align 1
  br label %74

74:                                               ; preds = %73, %67, %59, %51, %43, %35, %27, %19
  %75 = load i1, ptr %3, align 1
  ret i1 %75

76:                                               ; preds = %68, %60, %52, %44, %36, %28, %20
  %77 = load ptr, ptr %7, align 8
  %78 = load i32, ptr %8, align 4
  %79 = insertvalue { ptr, i32 } poison, ptr %77, 0
  %80 = insertvalue { ptr, i32 } %79, i32 %78, 1
  resume { ptr, i32 } %80
}