; Function Attrs: mustprogress uwtable
define hidden noundef zeroext i1 @_ZN4cvc58internal4expr11TypeChecker14computeIsConstEPNS0_11NodeManagerENS0_12NodeTemplateILb0EEE(ptr noundef %0, ptr noundef readonly captures(none) %1) local_unnamed_addr #3 align 2 personality ptr @__gxx_personality_v0 {
  %3 = alloca %"class.cvc5::internal::NodeTemplate", align 8
  %4 = alloca %"class.cvc5::internal::NodeTemplate", align 8
  %5 = alloca %"class.cvc5::internal::NodeTemplate", align 8
  %6 = alloca %"class.cvc5::internal::NodeTemplate", align 8
  %7 = alloca %"class.cvc5::internal::NodeTemplate", align 8
  %8 = alloca %"class.cvc5::internal::NodeTemplate", align 8
  %9 = alloca %"class.cvc5::internal::NodeTemplate", align 8
  %10 = load ptr, ptr %1, align 8, !tbaa !11
  %11 = getelementptr inbounds nuw i8, ptr %10, i64 8
  %12 = load i64, ptr %11, align 8
  %13 = trunc i64 %12 to i32
  %14 = and i32 %13, 1023
  switch i32 %14, label %29 [
    i32 216, label %15
    i32 224, label %17
    i32 254, label %19
    i32 259, label %21
    i32 291, label %23
    i32 299, label %25
    i32 346, label %27
  ]

15:                                               ; preds = %2
  store ptr %10, ptr %3, align 8, !tbaa !11
  %16 = call noundef zeroext i1 @_ZN4cvc58internal6theory6arrays18ArrayStoreTypeRule14computeIsConstEPNS0_11NodeManagerENS0_12NodeTemplateILb0EEE(ptr noundef %0, ptr noundef nonnull %3)
  br label %29

17:                                               ; preds = %2
  store ptr %10, ptr %4, align 8, !tbaa !11
  %18 = call noundef zeroext i1 @_ZN4cvc58internal6theory9datatypes27DatatypeConstructorTypeRule14computeIsConstEPNS0_11NodeManagerENS0_12NodeTemplateILb0EEE(ptr noundef %0, ptr noundef nonnull %4)
  br label %29

19:                                               ; preds = %2
  store ptr %10, ptr %5, align 8, !tbaa !11
  %20 = call noundef zeroext i1 @_ZN4cvc58internal6theory4sets26SetsBinaryOperatorTypeRule14computeIsConstEPNS0_11NodeManagerENS0_12NodeTemplateILb0EEE(ptr noundef %0, ptr noundef nonnull %5)
  br label %29

21:                                               ; preds = %2
  store ptr %10, ptr %6, align 8, !tbaa !11
  %22 = call noundef zeroext i1 @_ZN4cvc58internal6theory4sets17SingletonTypeRule14computeIsConstEPNS0_11NodeManagerENS0_12NodeTemplateILb0EEE(ptr noundef %0, ptr noundef nonnull %6)
  br label %29

23:                                               ; preds = %2
  store ptr %10, ptr %7, align 8, !tbaa !11
  %24 = call noundef zeroext i1 @_ZN4cvc58internal6theory4bags22BinaryOperatorTypeRule14computeIsConstEPNS0_11NodeManagerENS0_12NodeTemplateILb0EEE(ptr noundef %0, ptr noundef nonnull %7)
  br label %29

25:                                               ; preds = %2
  store ptr %10, ptr %8, align 8, !tbaa !11
  %26 = call noundef zeroext i1 @_ZN4cvc58internal6theory4bags15BagMakeTypeRule14computeIsConstEPNS0_11NodeManagerENS0_12NodeTemplateILb0EEE(ptr noundef %0, ptr noundef nonnull %8)
  br label %29

27:                                               ; preds = %2
  store ptr %10, ptr %9, align 8, !tbaa !11
  %28 = call noundef zeroext i1 @_ZN4cvc58internal6theory7strings22StringToRegExpTypeRule14computeIsConstEPNS0_11NodeManagerENS0_12NodeTemplateILb0EEE(ptr noundef %0, ptr noundef nonnull %9)
  br label %29

29:                                               ; preds = %15, %17, %19, %21, %23, %25, %27, %2
  %.010 = phi i1 [ false, %2 ], [ %16, %15 ], [ %18, %17 ], [ %20, %19 ], [ %22, %21 ], [ %24, %23 ], [ %26, %25 ], [ %28, %27 ]
  ret i1 %.010
}